target datalayout = "e-m:e-p270:32:32-p271:32:32-p272:64:64-i64:64-i128:128-f80:128-n8:16:32:64-S128"
target triple = "x86_64-pc-linux-gnu"

%struct.mbedtls_ssl_context = type { ptr, i32, i32, i32, i32, i32, ptr, ptr, ptr, ptr, ptr, ptr, ptr, ptr, ptr, ptr, ptr, ptr, ptr, ptr, ptr, ptr, ptr, ptr, ptr, ptr, ptr, ptr, ptr, ptr, ptr, ptr, ptr, i32, i64, i64, i16, i64, i64, i64, i64, i32, i32, i8, i8, i32, i8, ptr, ptr, ptr, ptr, ptr, ptr, ptr, i32, i64, i64, [8 x i8], i16, ptr, ptr, ptr, i64, i32, i64, [12 x i8], [12 x i8], [32 x i8], i8, i8, ptr, ptr, %union.mbedtls_ssl_user_data_t }
%union.mbedtls_ssl_user_data_t = type { i64 }

@.str = private unnamed_addr constant [121 x i8] c"generated/home/dtcxzyw/WorkSpace/Projects/compilers/llvm-opt-benchmark/bench/lief/bench_build/mbed_src/library/ssl_msg.c\00", align 1
@.str.72 = private unnamed_addr constant [25 x i8] c"mbedtls_ssl_write_record\00", align 1
@.str.115 = private unnamed_addr constant [22 x i8] c"=> send alert message\00", align 1
@.str.116 = private unnamed_addr constant [31 x i8] c"send alert level=%u message=%u\00", align 1
@.str.117 = private unnamed_addr constant [22 x i8] c"<= send alert message\00", align 1

; Function Attrs: nounwind uwtable
define hidden i32 @mbedtls_ssl_send_alert_message(ptr noundef %0, i8 noundef zeroext %1, i8 noundef zeroext %2) #0 {
  %4 = alloca i32, align 4
  %5 = alloca ptr, align 8
  %6 = alloca i8, align 1
  %7 = alloca i8, align 1
  %8 = alloca i32, align 4
  %9 = alloca i32, align 4
  store ptr %0, ptr %5, align 8, !tbaa !3
  store i8 %1, ptr %6, align 1, !tbaa !38
  store i8 %2, ptr %7, align 1, !tbaa !38
  call void @llvm.lifetime.start.p0(i64 4, ptr %8) #11
  store i32 -110, ptr %8, align 4, !tbaa !8
  %10 = load ptr, ptr %5, align 8, !tbaa !3
  %11 = icmp eq ptr %10, null
  br i1 %11, label %17, label %12

12:                                               ; preds = %3
  %13 = load ptr, ptr %5, align 8, !tbaa !3
  %14 = getelementptr inbounds nuw %struct.mbedtls_ssl_context, ptr %13, i32 0, i32 0
  %15 = load ptr, ptr %14, align 8, !tbaa !23
  %16 = icmp eq ptr %15, null
  br i1 %16, label %17, label %18

17:                                               ; preds = %12, %3
  store i32 -28928, ptr %4, align 4
  store i32 1, ptr %9, align 4
  br label %56

18:                                               ; preds = %12
  %19 = load ptr, ptr %5, align 8, !tbaa !3
  %20 = getelementptr inbounds nuw %struct.mbedtls_ssl_context, ptr %19, i32 0, i32 56
  %21 = load i64, ptr %20, align 8, !tbaa !101
  %22 = icmp ne i64 %21, 0
  br i1 %22, label %23, label %26

23:                                               ; preds = %18
  %24 = load ptr, ptr %5, align 8, !tbaa !3
  %25 = call i32 @mbedtls_ssl_flush_output(ptr noundef %24)
  store i32 %25, ptr %4, align 4
  store i32 1, ptr %9, align 4
  br label %56

26:                                               ; preds = %18
  %27 = load ptr, ptr %5, align 8, !tbaa !3
  call void (ptr, i32, ptr, i32, ptr, ...) @mbedtls_debug_print_msg(ptr noundef %27, i32 noundef 2, ptr noundef @.str, i32 noundef 5168, ptr noundef @.str.115)
  %28 = load ptr, ptr %5, align 8, !tbaa !3
  %29 = load i8, ptr %6, align 1, !tbaa !38
  %30 = zext i8 %29 to i32
  %31 = load i8, ptr %7, align 1, !tbaa !38
  %32 = zext i8 %31 to i32
  call void (ptr, i32, ptr, i32, ptr, ...) @mbedtls_debug_print_msg(ptr noundef %28, i32 noundef 3, ptr noundef @.str, i32 noundef 5169, ptr noundef @.str.116, i32 noundef %30, i32 noundef %32)
  %33 = load ptr, ptr %5, align 8, !tbaa !3
  %34 = getelementptr inbounds nuw %struct.mbedtls_ssl_context, ptr %33, i32 0, i32 54
  store i32 21, ptr %34, align 8, !tbaa !125
  %35 = load ptr, ptr %5, align 8, !tbaa !3
  %36 = getelementptr inbounds nuw %struct.mbedtls_ssl_context, ptr %35, i32 0, i32 55
  store i64 2, ptr %36, align 8, !tbaa !102
  %37 = load i8, ptr %6, align 1, !tbaa !38
  %38 = load ptr, ptr %5, align 8, !tbaa !3
  %39 = getelementptr inbounds nuw %struct.mbedtls_ssl_context, ptr %38, i32 0, i32 53
  %40 = load ptr, ptr %39, align 8, !tbaa !111
  %41 = getelementptr inbounds i8, ptr %40, i64 0
  store i8 %37, ptr %41, align 1, !tbaa !38
  %42 = load i8, ptr %7, align 1, !tbaa !38
  %43 = load ptr, ptr %5, align 8, !tbaa !3
  %44 = getelementptr inbounds nuw %struct.mbedtls_ssl_context, ptr %43, i32 0, i32 53
  %45 = load ptr, ptr %44, align 8, !tbaa !111
  %46 = getelementptr inbounds i8, ptr %45, i64 1
  store i8 %42, ptr %46, align 1, !tbaa !38
  %47 = load ptr, ptr %5, align 8, !tbaa !3
  %48 = call i32 @mbedtls_ssl_write_record(ptr noundef %47, i32 noundef 1)
  store i32 %48, ptr %8, align 4, !tbaa !8
  %49 = icmp ne i32 %48, 0
  br i1 %49, label %50, label %54

50:                                               ; preds = %26
  %51 = load ptr, ptr %5, align 8, !tbaa !3
  %52 = load i32, ptr %8, align 4, !tbaa !8
  call void @mbedtls_debug_print_ret(ptr noundef %51, i32 noundef 1, ptr noundef @.str, i32 noundef 5177, ptr noundef @.str.72, i32 noundef %52)
  %53 = load i32, ptr %8, align 4, !tbaa !8
  store i32 %53, ptr %4, align 4
  store i32 1, ptr %9, align 4
  br label %56

54:                                               ; preds = %26
  %55 = load ptr, ptr %5, align 8, !tbaa !3
  call void (ptr, i32, ptr, i32, ptr, ...) @mbedtls_debug_print_msg(ptr noundef %55, i32 noundef 2, ptr noundef @.str, i32 noundef 5180, ptr noundef @.str.117)
  store i32 0, ptr %4, align 4
  store i32 1, ptr %9, align 4
  br label %56

56:                                               ; preds = %54, %50, %23, %17
  call void @llvm.lifetime.end.p0(i64 4, ptr %8) #11
  %57 = load i32, ptr %4, align 4
  ret i32 %57
}