; Function Attrs: nounwind uwtable
define hidden i32 @mbedtls_ssl_send_alert_message(ptr noundef %0, i8 noundef zeroext %1, i8 noundef zeroext %2) local_unnamed_addr #0 {
  %4 = icmp eq ptr %0, null
  br i1 %4, label %25, label %5

5:                                                ; preds = %3
  %6 = load ptr, ptr %0, align 8, !tbaa !18
  %7 = icmp eq ptr %6, null
  br i1 %7, label %25, label %8

8:                                                ; preds = %5
  %9 = getelementptr inbounds nuw i8, ptr %0, i64 408
  %10 = load i64, ptr %9, align 8, !tbaa !95
  %.not = icmp eq i64 %10, 0
  br i1 %.not, label %13, label %11

11:                                               ; preds = %8
  %12 = tail call i32 @mbedtls_ssl_flush_output(ptr noundef nonnull %0)
  br label %25

13:                                               ; preds = %8
  tail call void (ptr, i32, ptr, i32, ptr, ...) @mbedtls_debug_print_msg(ptr noundef nonnull %0, i32 noundef 2, ptr noundef nonnull @.str, i32 noundef 5168, ptr noundef nonnull @.str.115) #19
  %14 = zext i8 %1 to i32
  %15 = zext i8 %2 to i32
  tail call void (ptr, i32, ptr, i32, ptr, ...) @mbedtls_debug_print_msg(ptr noundef nonnull %0, i32 noundef 3, ptr noundef nonnull @.str, i32 noundef 5169, ptr noundef nonnull @.str.116, i32 noundef %14, i32 noundef %15) #19
  %16 = getelementptr inbounds nuw i8, ptr %0, i64 392
  store i32 21, ptr %16, align 8, !tbaa !118
  %17 = getelementptr inbounds nuw i8, ptr %0, i64 400
  store i64 2, ptr %17, align 8, !tbaa !98
  %18 = getelementptr inbounds nuw i8, ptr %0, i64 384
  %19 = load ptr, ptr %18, align 8, !tbaa !105
  store i8 %1, ptr %19, align 1, !tbaa !32
  %20 = load ptr, ptr %18, align 8, !tbaa !105
  %21 = getelementptr inbounds nuw i8, ptr %20, i64 1
  store i8 %2, ptr %21, align 1, !tbaa !32
  %22 = tail call i32 @mbedtls_ssl_write_record(ptr noundef nonnull %0, i32 noundef 1)
  %.not21 = icmp eq i32 %22, 0
  br i1 %.not21, label %24, label %23

23:                                               ; preds = %13
  tail call void @mbedtls_debug_print_ret(ptr noundef nonnull %0, i32 noundef 1, ptr noundef nonnull @.str, i32 noundef 5177, ptr noundef nonnull @.str.72, i32 noundef %22) #19
  br label %25

24:                                               ; preds = %13
  tail call void (ptr, i32, ptr, i32, ptr, ...) @mbedtls_debug_print_msg(ptr noundef nonnull %0, i32 noundef 2, ptr noundef nonnull @.str, i32 noundef 5180, ptr noundef nonnull @.str.117) #19
  br label %25

25:                                               ; preds = %3, %5, %24, %23, %11
  %.0 = phi i32 [ %12, %11 ], [ %22, %23 ], [ 0, %24 ], [ -28928, %5 ], [ -28928, %3 ]
  ret i32 %.0
}